target datalayout = "e-m:e-p270:32:32-p271:32:32-p272:64:64-i64:64-i128:128-f80:128-n8:16:32:64-S128"
target triple = "x86_64-pc-linux-gnu"

%struct.ic_env_s = type { ptr, ptr, ptr, ptr, ptr, ptr, ptr, ptr, ptr, ptr, ptr, ptr, ptr, i8, i8, i8, i8, i8, i8, i8, i8, i8, i8, i8, i8, i8, i64 }

@rpenv = internal global ptr null, align 8

; Function Attrs: nounwind uwtable
define internal ptr @ic_get_env() #0 {
  %1 = load ptr, ptr @rpenv, align 8, !tbaa !65
  %2 = icmp eq ptr %1, null
  br i1 %2, label %3, label %10

3:                                                ; preds = %0
  %4 = call ptr @ic_env_create(ptr noundef null, ptr noundef null, ptr noundef null)
  store ptr %4, ptr @rpenv, align 8, !tbaa !65
  %5 = load ptr, ptr @rpenv, align 8, !tbaa !65
  %6 = icmp ne ptr %5, null
  br i1 %6, label %7, label %9

7:                                                ; preds = %3
  %8 = call i32 @atexit(ptr noundef @ic_atexit) #13
  br label %9

9:                                                ; preds = %7, %3
  br label %10

10:                                               ; preds = %9, %0
  %11 = load ptr, ptr @rpenv, align 8, !tbaa !65
  ret ptr %11
}

; Function Attrs: nounwind uwtable
define dso_local void @ic_term_flush() #0 {
  %1 = alloca ptr, align 8
  %2 = alloca i32, align 4
  call void @llvm.lifetime.start.p0(i64 8, ptr %1) #13
  %3 = call ptr @ic_get_env()
  store ptr %3, ptr %1, align 8, !tbaa !65
  %4 = load ptr, ptr %1, align 8, !tbaa !65
  %5 = icmp eq ptr %4, null
  br i1 %5, label %6, label %7

6:                                                ; preds = %0
  store i32 1, ptr %2, align 4
  br label %17

7:                                                ; preds = %0
  %8 = load ptr, ptr %1, align 8, !tbaa !65
  %9 = getelementptr inbounds nuw %struct.ic_env_s, ptr %8, i32 0, i32 2
  %10 = load ptr, ptr %9, align 8, !tbaa !127
  %11 = icmp eq ptr %10, null
  br i1 %11, label %12, label %13

12:                                               ; preds = %7
  store i32 1, ptr %2, align 4
  br label %17

13:                                               ; preds = %7
  %14 = load ptr, ptr %1, align 8, !tbaa !65
  %15 = getelementptr inbounds nuw %struct.ic_env_s, ptr %14, i32 0, i32 2
  %16 = load ptr, ptr %15, align 8, !tbaa !127
  call void @term_flush(ptr noundef %16)
  store i32 0, ptr %2, align 4
  br label %17

17:                                               ; preds = %13, %12, %6
  call void @llvm.lifetime.end.p0(i64 8, ptr %1) #13
  %18 = load i32, ptr %2, align 4
  switch i32 %18, label %20 [
    i32 0, label %19
    i32 1, label %19
  ]

19:                                               ; preds = %17, %17
  ret void

20:                                               ; preds = %17
  unreachable
}